CCS PCH C Compiler, Version 4.140, 21898               19-jul-13 14:11

               Filename:   E:\Eletronica\Projetos\LCD232\ctrl.lst

               ROM used:   2482 bytes (8%)
                           Largest free fragment is 30286
               RAM used:   16 (1%) at main() level
                           42 (3%) worst case
               Stack:     2 locations

*
0000:  GOTO   07BE
.................... /* 
....................  * ctrl.c 
....................  * 
....................  *  Created on: 04/10/2012 
....................  *      Author: cuki 
....................  */ 
.................... #include<18F452.h> 
.................... //////// Standard Header file for the PIC18F452 device //////////////// 
.................... #device PIC18F452 
.................... #list 
....................  
....................  
.................... #fuses HS,NOOSCSEN,NOPUT,NOBROWNOUT,NOWDT,NOSTVREN,NOLVP,NODEBUG,NOPROTECT,NOCPB,NOCPD,NOWRT,NOWRTC,NOWRTB,NOWRTD,NOEBTR,NOEBTRB 
.................... #use delay(clock=8MHz) 
*
0016:  CLRF   FEA
0018:  MOVLW  09
001A:  MOVWF  FE9
001C:  MOVF   FEF,W
001E:  BZ    003A
0020:  MOVLW  02
0022:  MOVWF  01
0024:  CLRF   00
0026:  DECFSZ 00,F
0028:  BRA    0026
002A:  DECFSZ 01,F
002C:  BRA    0024
002E:  MOVLW  97
0030:  MOVWF  00
0032:  DECFSZ 00,F
0034:  BRA    0032
0036:  DECFSZ FEF,F
0038:  BRA    0020
003A:  RETURN 0
.................... #use rs232(baud=9600,xmit=pin_c6,rcv=pin_c7) 
....................  
.................... float cont; 
....................  
.................... int main(void) { 
*
07BE:  CLRF   FF8
07C0:  BCF    FD0.7
07C2:  CLRF   FEA
07C4:  CLRF   FE9
07C6:  MOVLW  0C
07C8:  MOVWF  FAF
07CA:  MOVLW  A2
07CC:  MOVWF  FAC
07CE:  MOVLW  90
07D0:  MOVWF  FAB
07D2:  BSF    FC1.0
07D4:  BSF    FC1.1
07D6:  BSF    FC1.2
07D8:  BCF    FC1.3
.................... 	delay_ms(1000); 
07DA:  MOVLW  04
07DC:  MOVWF  08
07DE:  MOVLW  FA
07E0:  MOVWF  09
07E2:  RCALL  0016
07E4:  DECFSZ 08,F
07E6:  BRA    07DE
.................... 	printf("\fInicio"); 
07E8:  MOVLW  04
07EA:  MOVWF  FF6
07EC:  MOVLW  00
07EE:  MOVWF  FF7
07F0:  RCALL  003C
.................... 	printf("\nSegunda"); 
07F2:  MOVLW  0C
07F4:  MOVWF  FF6
07F6:  MOVLW  00
07F8:  MOVWF  FF7
07FA:  RCALL  003C
.................... 	while (TRUE) { 
.................... 		if (!input(PIN_A0)) { 
07FC:  BSF    F92.0
07FE:  BTFSC  F80.0
0800:  BRA    09AA
.................... 			delay_ms(50); 
0802:  MOVLW  32
0804:  MOVWF  09
0806:  RCALL  0016
.................... 			if (!input(PIN_A0)) { 
0808:  BSF    F92.0
080A:  BTFSC  F80.0
080C:  BRA    09AA
.................... 				cont = cont + 0.83; 
080E:  BCF    FD8.1
0810:  MOVFF  07,0F
0814:  MOVFF  06,0E
0818:  MOVFF  05,0D
081C:  MOVFF  04,0C
0820:  MOVLW  E1
0822:  MOVWF  13
0824:  MOVLW  7A
0826:  MOVWF  12
0828:  MOVLW  54
082A:  MOVWF  11
082C:  MOVLW  7E
082E:  MOVWF  10
0830:  RCALL  005E
0832:  MOVFF  03,07
0836:  MOVFF  02,06
083A:  MOVFF  01,05
083E:  MOVFF  00,04
.................... 				printf("\fU%dA%dR%dB%d", 1, 1, 0, 1); 
0842:  MOVLW  0C
0844:  BTFSS  F9E.4
0846:  BRA    0844
0848:  MOVWF  FAD
084A:  MOVLW  55
084C:  BTFSS  F9E.4
084E:  BRA    084C
0850:  MOVWF  FAD
0852:  MOVLW  01
0854:  MOVWF  08
0856:  MOVLW  18
0858:  MOVWF  09
085A:  RCALL  02F0
085C:  MOVLW  41
085E:  BTFSS  F9E.4
0860:  BRA    085E
0862:  MOVWF  FAD
0864:  MOVLW  01
0866:  MOVWF  08
0868:  MOVLW  18
086A:  MOVWF  09
086C:  RCALL  02F0
086E:  MOVLW  52
0870:  BTFSS  F9E.4
0872:  BRA    0870
0874:  MOVWF  FAD
0876:  CLRF   08
0878:  MOVLW  18
087A:  MOVWF  09
087C:  RCALL  02F0
087E:  MOVLW  42
0880:  BTFSS  F9E.4
0882:  BRA    0880
0884:  MOVWF  FAD
0886:  MOVLW  01
0888:  MOVWF  08
088A:  MOVLW  18
088C:  MOVWF  09
088E:  RCALL  02F0
.................... 				printf("\n%5lu.%2lu %f", (long long) cont, 
.................... 						(long long) ((float) (cont - (long long) cont) * 100), 
.................... 						60.87); 
0890:  MOVFF  07,20
0894:  MOVFF  06,1F
0898:  MOVFF  05,1E
089C:  MOVFF  04,1D
08A0:  RCALL  03A2
08A2:  MOVFF  03,0B
08A6:  MOVFF  02,0A
08AA:  MOVFF  01,09
08AE:  MOVFF  00,08
08B2:  MOVFF  07,20
08B6:  MOVFF  06,1F
08BA:  MOVFF  05,1E
08BE:  MOVFF  04,1D
08C2:  RCALL  03A2
08C4:  MOVFF  03,0F
08C8:  MOVFF  02,0E
08CC:  MOVFF  01,0D
08D0:  MOVFF  00,0C
08D4:  BRA    03E0
08D6:  BSF    FD8.1
08D8:  MOVFF  07,0F
08DC:  MOVFF  06,0E
08E0:  MOVFF  05,0D
08E4:  MOVFF  04,0C
08E8:  MOVFF  03,13
08EC:  MOVFF  02,12
08F0:  MOVFF  01,11
08F4:  MOVFF  00,10
08F8:  CALL   005E
08FC:  MOVFF  00,0C
0900:  MOVFF  01,0D
0904:  MOVFF  02,0E
0908:  MOVFF  03,0F
090C:  MOVFF  03,20
0910:  MOVFF  02,1F
0914:  MOVFF  01,1E
0918:  MOVFF  00,1D
091C:  CLRF   24
091E:  CLRF   23
0920:  MOVLW  48
0922:  MOVWF  22
0924:  MOVLW  85
0926:  MOVWF  21
0928:  RCALL  0416
092A:  MOVFF  03,20
092E:  MOVFF  02,1F
0932:  MOVFF  01,1E
0936:  MOVFF  00,1D
093A:  RCALL  03A2
093C:  MOVFF  03,0F
0940:  MOVFF  02,0E
0944:  MOVFF  01,0D
0948:  MOVFF  00,0C
094C:  MOVLW  0A
094E:  BTFSS  F9E.4
0950:  BRA    094E
0952:  MOVWF  FAD
0954:  MOVLW  05
0956:  MOVWF  FE9
0958:  MOVFF  0B,13
095C:  MOVFF  0A,12
0960:  MOVFF  09,11
0964:  MOVFF  08,10
0968:  RCALL  0596
096A:  MOVLW  2E
096C:  BTFSS  F9E.4
096E:  BRA    096C
0970:  MOVWF  FAD
0972:  MOVLW  02
0974:  MOVWF  FE9
0976:  MOVFF  0F,13
097A:  MOVFF  0E,12
097E:  MOVFF  0D,11
0982:  MOVFF  0C,10
0986:  RCALL  0596
0988:  MOVLW  20
098A:  BTFSS  F9E.4
098C:  BRA    098A
098E:  MOVWF  FAD
0990:  MOVLW  89
0992:  MOVWF  FE9
0994:  MOVLW  E1
0996:  MOVWF  13
0998:  MOVLW  7A
099A:  MOVWF  12
099C:  MOVLW  73
099E:  MOVWF  11
09A0:  MOVLW  84
09A2:  MOVWF  10
09A4:  MOVLW  02
09A6:  MOVWF  14
09A8:  BRA    063C
.................... 			} 
.................... 		} 
.................... 	} 
09AA:  BRA    07FC
.................... 	return 0; 
09AC:  MOVLW  00
09AE:  MOVWF  01
.................... } 
09B0:  SLEEP 

Configuration Fuses:
   Word  1: 2200   HS NOOSCSEN
   Word  2: 0E0D   NOPUT NOBROWNOUT BORV20 NOWDT WDT128
   Word  3: 0100   CCP2C1
   Word  4: 0080   NOSTVREN NOLVP NODEBUG
   Word  5: C00F   NOPROTECT NOCPB NOCPD
   Word  6: E00F   NOWRT NOWRTC NOWRTB NOWRTD
   Word  7: 400F   NOEBTR NOEBTRB
